; Function Attrs: mustprogress nounwind uwtable
define hidden void @_ZN13G1IHOPControl23update_target_occupancyEm(ptr nocapture noundef nonnull align 8 dereferenceable(40) %0, i64 noundef %1) unnamed_addr #1 align 2 {
  %3 = load volatile ptr, ptr getelementptr inbounds (i8, ptr @_ZN16LogTagSetMappingILN6LogTag4typeE49ELS1_55ELS1_0ELS1_0ELS1_0ELS1_0EE7_tagsetE, i64 56), align 8
  %.not = icmp eq ptr %3, null
  br i1 %.not, label %7, label %4

4:                                                ; preds = %2
  %5 = getelementptr inbounds i8, ptr %0, i64 16
  %6 = load i64, ptr %5, align 8
  tail call void (ptr, ...) @_ZN7LogImplILN6LogTag4typeE49ELS1_55ELS1_0ELS1_0ELS1_0ELS1_0EE5writeILN8LogLevel4typeE2EEEvPKcz(ptr noundef nonnull @.str, i64 noundef %6, i64 noundef %1)
  br label %7

7:                                                ; preds = %2, %4
  %8 = getelementptr inbounds i8, ptr %0, i64 16
  store i64 %1, ptr %8, align 8
  ret void
}